; Function Attrs: mustprogress uwtable
define void @_ZN5arrow2io21CompressedInputStream7DoCloseEv(ptr noalias sret(%"class.arrow::Status") align 8 %agg.result, ptr nocapture noundef nonnull readonly align 8 dereferenceable(32) %this) local_unnamed_addr #0 align 2 {
entry:
  %impl_ = getelementptr inbounds i8, ptr %this, i64 24
  %0 = load ptr, ptr %impl_, align 8
  tail call void @llvm.experimental.noalias.scope.decl(metadata !125)
  %is_open_.i = getelementptr inbounds i8, ptr %0, i64 24
  %1 = load i8, ptr %is_open_.i, align 8, !noalias !125
  %2 = and i8 %1, 1
  %tobool.not.i = icmp eq i8 %2, 0
  br i1 %tobool.not.i, label %if.else.i, label %if.then.i

if.then.i:                                        ; preds = %entry
  store i8 0, ptr %is_open_.i, align 8, !noalias !125
  %raw_.i = getelementptr inbounds i8, ptr %0, i64 8
  %3 = load ptr, ptr %raw_.i, align 8, !noalias !125
  %vtable.i = load ptr, ptr %3, align 8, !noalias !125
  %vbase.offset.ptr.i = getelementptr i8, ptr %vtable.i, i64 -56
  %vbase.offset.i = load i64, ptr %vbase.offset.ptr.i, align 8, !noalias !125
  %add.ptr.i = getelementptr inbounds i8, ptr %3, i64 %vbase.offset.i
  %vtable3.i = load ptr, ptr %add.ptr.i, align 8, !noalias !125
  %vfn.i = getelementptr inbounds i8, ptr %vtable3.i, i64 16
  %4 = load ptr, ptr %vfn.i, align 8, !noalias !125
  tail call void %4(ptr sret(%"class.arrow::Status") align 8 %agg.result, ptr noundef nonnull align 8 dereferenceable(28) %add.ptr.i)
  br label %_ZN5arrow2io21CompressedInputStream4Impl5CloseEv.exit

if.else.i:                                        ; preds = %entry
  store ptr null, ptr %agg.result, align 8, !alias.scope !128
  br label %_ZN5arrow2io21CompressedInputStream4Impl5CloseEv.exit

_ZN5arrow2io21CompressedInputStream4Impl5CloseEv.exit: ; preds = %if.then.i, %if.else.i
  ret void
}